; Function Attrs: mustprogress uwtable
define dso_local noundef i32 @_ZNK7testing9TestSuite17failed_test_countEv(ptr noundef nonnull readonly align 8 captures(none) dereferenceable(264) %0) local_unnamed_addr #3 align 2 {
  %2 = getelementptr inbounds nuw i8, ptr %0, i64 48
  %3 = load ptr, ptr %2, align 8, !tbaa !716
  %4 = getelementptr inbounds nuw i8, ptr %0, i64 56
  %5 = load ptr, ptr %4, align 8, !tbaa !716
  %.not7.i = icmp eq ptr %3, %5
  br i1 %.not7.i, label %_ZN7testing8internal7CountIfISt6vectorIPNS_8TestInfoESaIS4_EEPFbPKS3_EEEiRKT_T0_.exit, label %.lr.ph.i

.lr.ph.i:                                         ; preds = %1, %_ZN7testing9TestSuite10TestFailedEPKNS_8TestInfoE.exit
  %.09.i = phi i32 [ %spec.select.i, %_ZN7testing9TestSuite10TestFailedEPKNS_8TestInfoE.exit ], [ 0, %1 ]
  %.sroa.04.08.i = phi ptr [ %26, %_ZN7testing9TestSuite10TestFailedEPKNS_8TestInfoE.exit ], [ %3, %1 ]
  %6 = load ptr, ptr %.sroa.04.08.i, align 8, !tbaa !717
  %7 = getelementptr inbounds nuw i8, ptr %6, i64 128
  %8 = load i8, ptr %7, align 8, !tbaa !718, !range !17, !noundef !18
  %9 = trunc nuw i8 %8 to i1
  br i1 %9, label %10, label %_ZN7testing9TestSuite10TestFailedEPKNS_8TestInfoE.exit

10:                                               ; preds = %.lr.ph.i
  %11 = getelementptr inbounds nuw i8, ptr %6, i64 200
  %12 = getelementptr inbounds nuw i8, ptr %6, i64 208
  %13 = load ptr, ptr %12, align 8, !tbaa !549
  %14 = load ptr, ptr %11, align 8, !tbaa !551
  %15 = ptrtoint ptr %13 to i64
  %16 = ptrtoint ptr %14 to i64
  %17 = sub i64 %15, %16
  %18 = sdiv exact i64 %17, 112
  %19 = trunc i64 %18 to i32
  %.not10.i.i = icmp sgt i32 %19, 0
  br i1 %.not10.i.i, label %.lr.ph.preheader.i.i, label %_ZN7testing9TestSuite10TestFailedEPKNS_8TestInfoE.exit

.lr.ph.preheader.i.i:                             ; preds = %10
  %wide.trip.count.i.i = and i64 %18, 2147483647
  br label %.lr.ph.i.i

20:                                               ; preds = %_ZNK7testing10TestResult17GetTestPartResultEi.exit.i.i
  %indvars.iv.next.i.i = add nuw nsw i64 %indvars.iv.i.i, 1
  %exitcond16.not.i.i = icmp eq i64 %indvars.iv.next.i.i, %wide.trip.count.i.i
  br i1 %exitcond16.not.i.i, label %_ZN7testing9TestSuite10TestFailedEPKNS_8TestInfoE.exit, label %.lr.ph.i.i, !llvm.loop !721

.lr.ph.i.i:                                       ; preds = %20, %.lr.ph.preheader.i.i
  %indvars.iv.i.i = phi i64 [ 0, %.lr.ph.preheader.i.i ], [ %indvars.iv.next.i.i, %20 ]
  %exitcond.not.i.i = icmp eq i64 %indvars.iv.i.i, %18
  br i1 %exitcond.not.i.i, label %21, label %_ZNK7testing10TestResult17GetTestPartResultEi.exit.i.i

21:                                               ; preds = %.lr.ph.i.i
  tail call void (ptr, ...) @_ZSt24__throw_out_of_range_fmtPKcz(ptr noundef nonnull @.str.549, i64 noundef %18, i64 noundef %18) #59
  unreachable

_ZNK7testing10TestResult17GetTestPartResultEi.exit.i.i: ; preds = %.lr.ph.i.i
  %22 = getelementptr inbounds nuw %"class.testing::TestPartResult", ptr %14, i64 %indvars.iv.i.i
  %23 = load i32, ptr %22, align 8, !tbaa !548
  %24 = add i32 %23, -1
  %spec.select.i.i.i = icmp ult i32 %24, 2
  br i1 %spec.select.i.i.i, label %_ZN7testing9TestSuite10TestFailedEPKNS_8TestInfoE.exit, label %20

_ZN7testing9TestSuite10TestFailedEPKNS_8TestInfoE.exit: ; preds = %20, %_ZNK7testing10TestResult17GetTestPartResultEi.exit.i.i, %.lr.ph.i, %10
  %25 = phi i32 [ 0, %.lr.ph.i ], [ 0, %10 ], [ 0, %20 ], [ 1, %_ZNK7testing10TestResult17GetTestPartResultEi.exit.i.i ]
  %spec.select.i = add nuw nsw i32 %25, %.09.i
  %26 = getelementptr inbounds nuw i8, ptr %.sroa.04.08.i, i64 8
  %.not.i = icmp eq ptr %26, %5
  br i1 %.not.i, label %_ZN7testing8internal7CountIfISt6vectorIPNS_8TestInfoESaIS4_EEPFbPKS3_EEEiRKT_T0_.exit, label %.lr.ph.i, !llvm.loop !723

_ZN7testing8internal7CountIfISt6vectorIPNS_8TestInfoESaIS4_EEPFbPKS3_EEEiRKT_T0_.exit: ; preds = %_ZN7testing9TestSuite10TestFailedEPKNS_8TestInfoE.exit, %1
  %.0.lcssa.i = phi i32 [ 0, %1 ], [ %spec.select.i, %_ZN7testing9TestSuite10TestFailedEPKNS_8TestInfoE.exit ]
  ret i32 %.0.lcssa.i
}